Certificate:
    Data:
        Version: 3 (0x2)
        Serial Number:
            e6:48:c8:00:f5:df:96:bd
    Signature Algorithm: sha256WithRSAEncryption
        Issuer: C=DE, ST=Bavaria, O=NTT DATA GmbH, OU=Erwin.Mueller, CN=erwinmueller.nttdata.com/emailAddress=erwin.mueller@nttdata.com
        Validity
            Not Before: Jun 22 08:15:46 2016 GMT
            Not After : Jun 20 08:15:46 2026 GMT
        Subject: C=DE, ST=Bavaria, O=NTT DATA GmbH, OU=Erwin.Mueller, CN=erwinmueller.nttdata.com/emailAddress=erwin.mueller@nttdata.com
        Subject Public Key Info:
            Public Key Algorithm: rsaEncryption
                Public-Key: (2048 bit)
                Modulus:
                    00:d8:d0:65:02:03:f1:c0:f4:a6:3c:be:de:0f:2f:
                    19:82:47:a2:7e:a8:ec:dc:39:16:a2:f2:e9:8c:4e:
                    52:05:e2:7a:37:8f:17:13:f8:b4:03:9d:3c:26:cb:
                    4d:b6:db:d1:23:9c:3e:09:75:49:57:18:a0:eb:03:
                    aa:29:5f:8b:f4:d2:4e:98:16:f6:74:47:6a:77:11:
                    8d:91:b6:59:c3:d6:cb:cc:f9:6c:ae:99:c4:df:b5:
                    88:6f:8c:ef:b5:6d:2e:7d:dd:2d:41:4c:01:6c:04:
                    90:54:9f:ea:b6:22:34:7d:02:1d:2b:9f:bf:6a:6c:
                    1b:fc:26:a1:4e:aa:9e:aa:82:53:5c:9b:0b:a6:36:
                    3c:e3:46:d5:8e:b5:49:da:5f:ca:d6:1f:bb:1a:07:
                    94:0d:d1:13:9e:b7:bd:02:d4:8e:49:92:3e:7c:e3:
                    3e:51:34:ff:a0:b8:81:a7:65:4e:7c:07:2d:0e:a4:
                    6d:3b:4f:1c:64:09:cf:22:0b:52:f0:08:73:c7:d9:
                    f9:f6:ca:0b:c7:98:38:df:a2:c4:7c:37:c6:01:46:
                    3b:01:52:6a:15:09:80:b5:9a:a0:75:fb:84:ab:6b:
                    dd:b4:bf:c5:b0:20:20:1a:e1:29:8a:33:e8:82:9d:
                    d3:57:81:f2:9a:4e:69:6c:a6:34:1f:33:87:a2:4a:
                    8c:cd
                Exponent: 65537 (0x10001)
        X509v3 extensions:
            X509v3 Subject Key Identifier: 
                B2:F8:1C:72:E2:8C:F7:13:E2:CD:B2:FB:F0:4F:3E:AD:E7:FE:C3:38
            X509v3 Authority Key Identifier: 
                keyid:B2:F8:1C:72:E2:8C:F7:13:E2:CD:B2:FB:F0:4F:3E:AD:E7:FE:C3:38
                DirName:/C=DE/ST=Bavaria/O=NTT DATA GmbH/OU=Erwin.Mueller/CN=erwinmueller.nttdata.com/emailAddress=erwin.mueller@nttdata.com
                serial:E6:48:C8:00:F5:DF:96:BD

            X509v3 Basic Constraints: 
                CA:TRUE
    Signature Algorithm: sha256WithRSAEncryption
         67:d4:c7:21:d7:f8:e6:32:3f:f4:bb:ea:05:9b:f5:34:05:fd:
         17:50:b8:1b:7b:90:cc:5c:d3:e3:98:43:e1:ef:54:7e:8d:ca:
         29:7c:3f:16:c7:a8:ec:c5:02:e7:41:c0:1d:45:83:91:b7:ed:
         6a:f8:e1:e2:a7:03:ac:b2:1d:1d:ba:42:8d:83:25:27:69:67:
         b2:8b:3a:25:b5:e4:e7:52:89:af:29:d2:fe:b2:4d:d6:db:83:
         54:48:24:88:f8:0b:ac:70:45:89:26:93:bc:db:ff:25:d3:5d:
         f0:c4:46:66:df:5a:2b:ac:1e:cf:b3:79:0d:d1:19:5c:5d:80:
         9d:18:6e:d4:54:d9:76:94:52:ad:64:97:bc:e9:3e:6e:39:ca:
         bc:58:b8:e5:00:ef:e6:45:21:1a:85:74:86:e0:e0:bf:6d:75:
         42:08:ac:90:0c:e6:5d:3f:03:81:90:a5:43:98:e4:39:76:d3:
         0c:59:80:55:11:b9:02:d2:50:59:fb:85:29:ef:89:e4:f6:a5:
         e8:aa:bf:ff:48:40:11:fd:b5:2c:43:aa:4a:ee:e3:1b:89:3d:
         2f:b9:18:67:71:e2:21:bb:1d:59:46:13:2c:cb:2d:af:6a:fa:
         fe:67:33:bd:7c:f3:08:c7:59:91:dd:c1:5c:d7:78:36:94:d2:
         05:68:16:ce
-----BEGIN CERTIFICATE-----
MIIExDCCA6ygAwIBAgIJAOZIyAD135a9MA0GCSqGSIb3DQEBCwUAMIGcMQswCQYD
VQQGEwJERTEQMA4GA1UECAwHQmF2YXJpYTEWMBQGA1UECgwNTlRUIERBVEEgR21i
SDEWMBQGA1UECwwNRXJ3aW4uTXVlbGxlcjEhMB8GA1UEAwwYZXJ3aW5tdWVsbGVy
Lm50dGRhdGEuY29tMSgwJgYJKoZIhvcNAQkBFhllcndpbi5tdWVsbGVyQG50dGRh
dGEuY29tMB4XDTE2MDYyMjA4MTU0NloXDTI2MDYyMDA4MTU0NlowgZwxCzAJBgNV
BAYTAkRFMRAwDgYDVQQIDAdCYXZhcmlhMRYwFAYDVQQKDA1OVFQgREFUQSBHbWJI
MRYwFAYDVQQLDA1Fcndpbi5NdWVsbGVyMSEwHwYDVQQDDBhlcndpbm11ZWxsZXIu
bnR0ZGF0YS5jb20xKDAmBgkqhkiG9w0BCQEWGWVyd2luLm11ZWxsZXJAbnR0ZGF0
YS5jb20wggEiMA0GCSqGSIb3DQEBAQUAA4IBDwAwggEKAoIBAQDY0GUCA/HA9KY8
vt4PLxmCR6J+qOzcORai8umMTlIF4no3jxcT+LQDnTwmy02229EjnD4JdUlXGKDr
A6opX4v00k6YFvZ0R2p3EY2RtlnD1svM+WyumcTftYhvjO+1bS593S1BTAFsBJBU
n+q2IjR9Ah0rn79qbBv8JqFOqp6qglNcmwumNjzjRtWOtUnaX8rWH7saB5QN0ROe
t70C1I5Jkj584z5RNP+guIGnZU58By0OpG07TxxkCc8iC1LwCHPH2fn2ygvHmDjf
osR8N8YBRjsBUmoVCYC1mqB1+4Sra920v8WwICAa4SmKM+iCndNXgfKaTmlspjQf
M4eiSozNAgMBAAGjggEFMIIBATAdBgNVHQ4EFgQUsvgccuKM9xPizbL78E8+ref+
wzgwgdEGA1UdIwSByTCBxoAUsvgccuKM9xPizbL78E8+ref+wzihgaKkgZ8wgZwx
CzAJBgNVBAYTAkRFMRAwDgYDVQQIDAdCYXZhcmlhMRYwFAYDVQQKDA1OVFQgREFU
QSBHbWJIMRYwFAYDVQQLDA1Fcndpbi5NdWVsbGVyMSEwHwYDVQQDDBhlcndpbm11
ZWxsZXIubnR0ZGF0YS5jb20xKDAmBgkqhkiG9w0BCQEWGWVyd2luLm11ZWxsZXJA
bnR0ZGF0YS5jb22CCQDmSMgA9d+WvTAMBgNVHRMEBTADAQH/MA0GCSqGSIb3DQEB
CwUAA4IBAQBn1Mch1/jmMj/0u+oFm/U0Bf0XULgbe5DMXNPjmEPh71R+jcopfD8W
x6jsxQLnQcAdRYORt+1q+OHipwOssh0dukKNgyUnaWeyizolteTnUomvKdL+sk3W
24NUSCSI+AuscEWJJpO82/8l013wxEZm31orrB7Ps3kN0RlcXYCdGG7UVNl2lFKt
ZJe86T5uOcq8WLjlAO/mRSEahXSG4OC/bXVCCKyQDOZdPwOBkKVDmOQ5dtMMWYBV
EbkC0lBZ+4Up74nk9qXoqr//SEAR/bUsQ6pK7uMbiT0vuRhnceIhux1ZRhMsyy2v
avr+ZzO9fPMIx1mR3cFc13g2lNIFaBbO
-----END CERTIFICATE-----
