Certificate:
    Data:
        Version: 3 (0x2)
        Serial Number:
            dc:65:cd:53:ee:47:0f:6a
    Signature Algorithm: sha256WithRSAEncryption
        Issuer: C=DE, ST=BAVARIA, O=NTT DATA GMBH, OU=ERWIN MUELLER, CN=erwinmueller.nttdata.com/emailAddress=admin@erwinmueller.nttdata.com
        Validity
            Not Before: Jun 22 09:08:14 2016 GMT
            Not After : Jun 20 09:08:14 2026 GMT
        Subject: C=DE, ST=BAVARIA, O=NTT DATA GMBH, OU=ERWIN MUELLER, CN=erwinmueller.nttdata.com/emailAddress=admin@erwinmueller.nttdata.com
        Subject Public Key Info:
            Public Key Algorithm: rsaEncryption
                Public-Key: (2048 bit)
                Modulus:
                    00:b7:2c:14:bf:3d:80:4b:2c:e3:b4:71:fc:43:21:
                    4b:90:a5:21:0f:ba:f8:cb:11:ed:1e:e9:fc:bf:ed:
                    ac:93:55:bf:57:0d:aa:33:e7:05:36:f5:c8:cc:1d:
                    92:1d:9b:5b:4b:2e:86:a7:a0:94:13:1b:22:3b:fb:
                    76:37:70:a2:7a:79:bb:39:04:48:6f:de:dd:dc:cc:
                    1a:1c:42:9a:77:26:20:42:34:ba:fb:02:01:0c:e1:
                    78:0c:00:1b:a3:33:4b:a0:6d:cb:ba:92:9c:06:dd:
                    24:f4:27:38:2b:a8:65:f8:6b:8e:3e:22:5d:61:6b:
                    1a:a5:02:08:36:f1:aa:69:6c:f5:ee:96:0a:9b:86:
                    61:84:84:cf:c8:e3:90:8e:98:92:6a:8c:93:93:24:
                    23:c3:88:15:e9:7f:3d:b8:57:87:55:ef:30:68:98:
                    56:17:b1:7e:50:6c:9d:3b:6a:c8:a1:42:96:68:0b:
                    0e:45:e4:13:75:d7:c2:59:d1:14:5c:2a:31:b0:92:
                    28:4b:2f:98:6d:03:d0:32:aa:31:68:1a:7f:eb:3b:
                    3f:f0:8d:e8:91:08:9c:50:ad:4f:c3:54:46:eb:d0:
                    a4:38:a9:6a:59:93:77:0b:b2:bb:82:e7:b1:90:e3:
                    27:ca:ba:a6:15:5d:94:3c:1a:3a:53:67:34:7e:4a:
                    ff:85
                Exponent: 65537 (0x10001)
        X509v3 extensions:
            X509v3 Subject Key Identifier: 
                D2:5E:C5:E3:22:73:72:C4:06:1B:A8:5E:B5:3C:75:50:D3:CB:F3:15
            X509v3 Authority Key Identifier: 
                keyid:D2:5E:C5:E3:22:73:72:C4:06:1B:A8:5E:B5:3C:75:50:D3:CB:F3:15
                DirName:/C=DE/ST=BAVARIA/O=NTT DATA GMBH/OU=ERWIN MUELLER/CN=erwinmueller.nttdata.com/emailAddress=admin@erwinmueller.nttdata.com
                serial:DC:65:CD:53:EE:47:0F:6A

            X509v3 Basic Constraints: 
                CA:TRUE
    Signature Algorithm: sha256WithRSAEncryption
         3e:95:34:74:8b:de:8a:a6:23:41:de:2f:6a:89:59:9f:83:a6:
         16:98:fd:14:7c:c3:5d:80:c1:8a:82:aa:6f:de:43:35:47:87:
         be:42:07:76:df:0f:fe:b1:e9:1c:1f:85:9c:78:62:20:e2:3b:
         fd:4d:1e:bc:49:06:2d:5f:58:4e:9e:21:cd:77:68:85:b9:3e:
         4c:c0:3d:40:42:e4:86:b9:88:e1:4b:3c:8b:20:54:09:7c:36:
         44:bb:95:7c:e5:4a:55:a2:b2:63:20:63:fb:fc:6b:3e:10:fb:
         ba:55:b2:86:e1:aa:8f:8d:92:8f:63:75:b7:80:b3:b8:b2:bf:
         4c:0e:6b:57:74:44:3d:2b:ad:77:64:a3:6e:22:b4:30:08:07:
         0f:88:7f:f2:fb:1c:97:2a:ee:16:c3:b2:d7:fa:94:be:6e:eb:
         52:f0:d0:51:05:c8:5d:fe:91:31:6d:94:3b:37:6b:e1:1c:81:
         6a:7a:45:12:53:24:95:4b:7b:69:76:b1:df:6d:c6:a8:ac:b2:
         1c:e2:a3:ef:bc:82:c3:cb:2f:85:18:d6:6e:8b:4f:8d:55:79:
         cf:14:bc:a2:b8:79:de:c5:0f:f5:fe:7c:bc:9c:43:b5:8f:72:
         bc:1e:09:e5:e2:f4:23:ea:82:2e:e1:16:fb:36:58:a5:a3:ad:
         7e:93:43:99
-----BEGIN CERTIFICATE-----
MIIE0zCCA7ugAwIBAgIJANxlzVPuRw9qMA0GCSqGSIb3DQEBCwUAMIGhMQswCQYD
VQQGEwJERTEQMA4GA1UECAwHQkFWQVJJQTEWMBQGA1UECgwNTlRUIERBVEEgR01C
SDEWMBQGA1UECwwNRVJXSU4gTVVFTExFUjEhMB8GA1UEAwwYZXJ3aW5tdWVsbGVy
Lm50dGRhdGEuY29tMS0wKwYJKoZIhvcNAQkBFh5hZG1pbkBlcndpbm11ZWxsZXIu
bnR0ZGF0YS5jb20wHhcNMTYwNjIyMDkwODE0WhcNMjYwNjIwMDkwODE0WjCBoTEL
MAkGA1UEBhMCREUxEDAOBgNVBAgMB0JBVkFSSUExFjAUBgNVBAoMDU5UVCBEQVRB
IEdNQkgxFjAUBgNVBAsMDUVSV0lOIE1VRUxMRVIxITAfBgNVBAMMGGVyd2lubXVl
bGxlci5udHRkYXRhLmNvbTEtMCsGCSqGSIb3DQEJARYeYWRtaW5AZXJ3aW5tdWVs
bGVyLm50dGRhdGEuY29tMIIBIjANBgkqhkiG9w0BAQEFAAOCAQ8AMIIBCgKCAQEA
tywUvz2ASyzjtHH8QyFLkKUhD7r4yxHtHun8v+2sk1W/Vw2qM+cFNvXIzB2SHZtb
Sy6Gp6CUExsiO/t2N3Cienm7OQRIb97d3MwaHEKadyYgQjS6+wIBDOF4DAAbozNL
oG3LupKcBt0k9Cc4K6hl+GuOPiJdYWsapQIINvGqaWz17pYKm4ZhhITPyOOQjpiS
aoyTkyQjw4gV6X89uFeHVe8waJhWF7F+UGydO2rIoUKWaAsOReQTddfCWdEUXCox
sJIoSy+YbQPQMqoxaBp/6zs/8I3okQicUK1Pw1RG69CkOKlqWZN3C7K7guexkOMn
yrqmFV2UPBo6U2c0fkr/hQIDAQABo4IBCjCCAQYwHQYDVR0OBBYEFNJexeMic3LE
BhuoXrU8dVDTy/MVMIHWBgNVHSMEgc4wgcuAFNJexeMic3LEBhuoXrU8dVDTy/MV
oYGnpIGkMIGhMQswCQYDVQQGEwJERTEQMA4GA1UECAwHQkFWQVJJQTEWMBQGA1UE
CgwNTlRUIERBVEEgR01CSDEWMBQGA1UECwwNRVJXSU4gTVVFTExFUjEhMB8GA1UE
AwwYZXJ3aW5tdWVsbGVyLm50dGRhdGEuY29tMS0wKwYJKoZIhvcNAQkBFh5hZG1p
bkBlcndpbm11ZWxsZXIubnR0ZGF0YS5jb22CCQDcZc1T7kcPajAMBgNVHRMEBTAD
AQH/MA0GCSqGSIb3DQEBCwUAA4IBAQA+lTR0i96KpiNB3i9qiVmfg6YWmP0UfMNd
gMGKgqpv3kM1R4e+Qgd23w/+sekcH4WceGIg4jv9TR68SQYtX1hOniHNd2iFuT5M
wD1AQuSGuYjhSzyLIFQJfDZEu5V85UpVorJjIGP7/Gs+EPu6VbKG4aqPjZKPY3W3
gLO4sr9MDmtXdEQ9K613ZKNuIrQwCAcPiH/y+xyXKu4Ww7LX+pS+butS8NBRBchd
/pExbZQ7N2vhHIFqekUSUySVS3tpdrHfbcaorLIc4qPvvILDyy+FGNZui0+NVXnP
FLyiuHnexQ/1/ny8nEO1j3K8Hgnl4vQj6oIu4Rb7Nlilo61+k0OZ
-----END CERTIFICATE-----
