Certificate:
    Data:
        Version: 3 (0x2)
        Serial Number:
            dc:65:cd:53:ee:47:0f:6b
    Signature Algorithm: sha256WithRSAEncryption
        Issuer: C=DE, ST=BAVARIA, O=NTT DATA GMBH, OU=ERWIN MUELLER, CN=erwinmueller.nttdata.com/emailAddress=admin@erwinmueller.nttdata.com
        Validity
            Not Before: Jun 22 09:10:02 2016 GMT
            Not After : Jun 22 09:10:02 2017 GMT
        Subject: C=DE, ST=BAVARIA, L=MUNICH, O=NTT DATA GMBH, OU=ERWIN MUELLER, CN=wordpress.muellerpublic.nttdata.com
        Subject Public Key Info:
            Public Key Algorithm: rsaEncryption
                Public-Key: (2048 bit)
                Modulus:
                    00:ca:ef:1a:27:76:27:64:73:19:98:e9:00:95:ca:
                    ef:9d:c2:ad:77:af:c4:bd:4c:6d:9c:91:51:5e:09:
                    77:11:a7:33:9d:99:96:28:f2:e5:7f:d2:10:49:fd:
                    6b:5e:d1:79:6d:86:a4:d7:2d:fe:68:51:e9:43:27:
                    8f:51:28:d2:58:14:ae:33:49:16:2b:01:9e:bd:c4:
                    d9:9e:2b:93:02:c3:03:49:ae:21:fb:7c:37:71:77:
                    a4:75:74:72:3c:89:4d:aa:de:f7:f8:55:2d:3a:e0:
                    3c:cd:61:89:24:b6:2b:81:9b:9e:ee:5e:cd:d2:f3:
                    8b:62:0d:27:49:a3:31:a9:f8:87:c3:82:c4:b8:de:
                    28:86:cb:99:7a:97:3c:de:0c:0d:a9:8a:9f:0c:77:
                    2a:ef:26:63:85:6a:87:52:3b:84:73:23:5e:a9:36:
                    5f:d0:0b:e3:16:ac:45:3a:f9:61:45:32:c3:64:1e:
                    68:1c:d4:16:ec:51:50:7c:9e:47:dc:eb:8e:79:5b:
                    34:d8:9f:48:b5:20:10:45:76:c1:9d:9a:d1:f6:46:
                    c7:76:9f:24:3d:f2:3a:f9:d4:01:13:67:4a:a0:47:
                    e9:5e:02:7d:d2:7a:1a:f3:7f:b1:f1:72:35:de:8b:
                    75:f9:2a:d0:f2:7d:f3:8a:4e:16:7d:e7:ee:80:41:
                    1e:13
                Exponent: 65537 (0x10001)
        X509v3 extensions:
            Netscape Comment: 
                OpenSSL Generated Certificate
            X509v3 Basic Constraints: 
                CA:FALSE
            X509v3 Subject Key Identifier: 
                45:AB:CD:AE:66:93:87:CB:AA:98:20:BE:D1:A4:4B:BC:6E:71:20:19
            X509v3 Authority Key Identifier: 
                keyid:D2:5E:C5:E3:22:73:72:C4:06:1B:A8:5E:B5:3C:75:50:D3:CB:F3:15

            X509v3 Subject Alternative Name: 
                email:admin@erwinmueller.nttdata.com
    Signature Algorithm: sha256WithRSAEncryption
         57:a0:36:64:4c:8c:60:2b:e5:9b:d9:73:39:dc:3f:02:84:43:
         76:0b:0f:a1:95:98:de:e2:ff:cd:b6:7e:d0:f6:2f:58:52:50:
         d9:9d:4b:54:3c:fd:22:4a:7c:95:7d:ba:63:4d:ea:10:ed:04:
         8d:45:b4:e8:f7:d8:f0:83:17:ab:aa:f1:60:07:69:8e:2d:22:
         57:eb:b4:bf:a0:93:37:0a:8d:0c:3d:e0:16:29:01:b9:c5:63:
         c2:4a:b8:b0:ba:bd:c7:48:a6:fc:d4:c3:07:0d:e5:f9:cc:7f:
         2c:d5:70:43:4d:05:f7:34:86:f6:4d:72:fa:e1:e3:9f:3f:26:
         e1:3c:dd:1b:66:f7:eb:b4:7c:6e:f6:0e:83:ef:38:8c:e7:71:
         2f:55:a4:b0:ae:c7:6f:14:35:57:da:74:1e:e8:53:16:51:10:
         a8:0d:b4:41:de:41:96:53:c7:45:ea:bd:31:50:59:f2:89:26:
         40:fb:d5:94:4e:0a:99:74:bd:ee:12:07:db:99:ba:3b:28:58:
         96:67:10:7b:eb:28:5e:0c:2a:f0:fd:f0:b3:d6:04:3a:b7:57:
         8b:5d:8d:84:2a:cd:fd:26:34:09:f0:d1:9f:14:d8:96:b1:1b:
         2f:9c:72:2b:41:8b:2b:ab:87:0f:c7:ea:45:84:21:35:e4:bf:
         2f:fe:9c:36
-----BEGIN CERTIFICATE-----
MIIEXDCCA0SgAwIBAgIJANxlzVPuRw9rMA0GCSqGSIb3DQEBCwUAMIGhMQswCQYD
VQQGEwJERTEQMA4GA1UECAwHQkFWQVJJQTEWMBQGA1UECgwNTlRUIERBVEEgR01C
SDEWMBQGA1UECwwNRVJXSU4gTVVFTExFUjEhMB8GA1UEAwwYZXJ3aW5tdWVsbGVy
Lm50dGRhdGEuY29tMS0wKwYJKoZIhvcNAQkBFh5hZG1pbkBlcndpbm11ZWxsZXIu
bnR0ZGF0YS5jb20wHhcNMTYwNjIyMDkxMDAyWhcNMTcwNjIyMDkxMDAyWjCBjjEL
MAkGA1UEBhMCREUxEDAOBgNVBAgMB0JBVkFSSUExDzANBgNVBAcMBk1VTklDSDEW
MBQGA1UECgwNTlRUIERBVEEgR01CSDEWMBQGA1UECwwNRVJXSU4gTVVFTExFUjEs
MCoGA1UEAwwjd29yZHByZXNzLm11ZWxsZXJwdWJsaWMubnR0ZGF0YS5jb20wggEi
MA0GCSqGSIb3DQEBAQUAA4IBDwAwggEKAoIBAQDK7xondidkcxmY6QCVyu+dwq13
r8S9TG2ckVFeCXcRpzOdmZYo8uV/0hBJ/Wte0XlthqTXLf5oUelDJ49RKNJYFK4z
SRYrAZ69xNmeK5MCwwNJriH7fDdxd6R1dHI8iU2q3vf4VS064DzNYYkktiuBm57u
Xs3S84tiDSdJozGp+IfDgsS43iiGy5l6lzzeDA2pip8MdyrvJmOFaodSO4RzI16p
Nl/QC+MWrEU6+WFFMsNkHmgc1BbsUVB8nkfc6455WzTYn0i1IBBFdsGdmtH2Rsd2
nyQ98jr51AETZ0qgR+leAn3Sehrzf7HxcjXei3X5KtDyffOKThZ95+6AQR4TAgMB
AAGjgacwgaQwLAYJYIZIAYb4QgENBB8WHU9wZW5TU0wgR2VuZXJhdGVkIENlcnRp
ZmljYXRlMAkGA1UdEwQCMAAwHQYDVR0OBBYEFEWrza5mk4fLqpggvtGkS7xucSAZ
MB8GA1UdIwQYMBaAFNJexeMic3LEBhuoXrU8dVDTy/MVMCkGA1UdEQQiMCCBHmFk
bWluQGVyd2lubXVlbGxlci5udHRkYXRhLmNvbTANBgkqhkiG9w0BAQsFAAOCAQEA
V6A2ZEyMYCvlm9lzOdw/AoRDdgsPoZWY3uL/zbZ+0PYvWFJQ2Z1LVDz9Ikp8lX26
Y03qEO0EjUW06PfY8IMXq6rxYAdpji0iV+u0v6CTNwqNDD3gFikBucVjwkq4sLq9
x0im/NTDBw3l+cx/LNVwQ00F9zSG9k1y+uHjnz8m4TzdG2b367R8bvYOg+84jOdx
L1WksK7HbxQ1V9p0HuhTFlEQqA20Qd5BllPHReq9MVBZ8okmQPvVlE4KmXS97hIH
25m6OyhYlmcQe+soXgwq8P3ws9YEOrdXi12NhCrN/SY0CfDRnxTYlrEbL5xyK0GL
K6uHD8fqRYQhNeS/L/6cNg==
-----END CERTIFICATE-----
