Certificate:
    Data:
        Version: 3 (0x2)
        Serial Number:
            dc:65:cd:53:ee:47:0f:6c
    Signature Algorithm: sha256WithRSAEncryption
        Issuer: C=DE, ST=BAVARIA, O=NTT DATA GMBH, OU=ERWIN MUELLER, CN=erwinmueller.nttdata.com/emailAddress=admin@erwinmueller.nttdata.com
        Validity
            Not Before: Jun 22 09:14:22 2016 GMT
            Not After : Jun 22 09:14:22 2017 GMT
        Subject: C=DE, ST=BAVARIA, L=MUNICH, O=NTT DATA GMBH, OU=ERWIN MUELLER, CN=mail0.muellerpublic.nttdata.com
        Subject Public Key Info:
            Public Key Algorithm: rsaEncryption
                Public-Key: (2048 bit)
                Modulus:
                    00:b4:20:df:51:4a:e9:c9:82:8a:39:8a:c0:43:ce:
                    c8:93:15:0b:d3:f5:db:d6:b9:7f:32:e7:42:ea:45:
                    76:aa:bc:b1:62:de:a8:22:2a:d9:29:ec:bd:c2:5a:
                    2f:9d:9d:0a:01:20:1b:ed:42:de:2b:37:31:85:7b:
                    7c:fd:6b:5d:29:76:33:1e:7e:72:53:8e:8e:59:51:
                    a7:20:19:2d:a0:0d:31:a9:9b:30:5b:a3:59:3b:0f:
                    ac:b2:1d:53:d2:92:5d:f1:d4:78:b9:57:5d:56:2f:
                    b1:4a:69:7a:ee:95:36:2a:be:de:1d:8f:33:ff:0b:
                    06:d7:76:a5:1b:01:35:e1:cb:b3:4b:6c:fc:9e:4f:
                    8b:3c:89:dd:26:56:a0:52:1d:73:f6:54:d5:35:d8:
                    0d:88:e0:09:78:89:bf:04:6f:f6:bc:ab:08:29:56:
                    90:11:c7:2f:85:1c:15:20:a2:b8:05:d1:e6:e4:34:
                    be:8d:21:ef:1f:e4:17:b0:51:23:23:17:8d:46:54:
                    55:6f:a1:7e:bb:d8:52:f0:cc:4c:3a:f2:ef:35:a9:
                    06:3d:48:38:dd:f3:a0:cd:78:8d:d4:ff:3e:db:41:
                    95:8f:e7:14:83:27:69:53:d7:36:75:36:09:66:d7:
                    6e:40:8f:88:73:e5:c9:4d:64:3d:d7:1c:7f:35:f8:
                    0f:23
                Exponent: 65537 (0x10001)
        X509v3 extensions:
            Netscape Comment: 
                OpenSSL Generated Certificate
            X509v3 Basic Constraints: 
                CA:FALSE
            X509v3 Subject Key Identifier: 
                90:41:16:5D:7D:E9:D0:5F:E1:41:7C:2D:BF:EA:87:9D:B2:EE:80:D7
            X509v3 Authority Key Identifier: 
                keyid:D2:5E:C5:E3:22:73:72:C4:06:1B:A8:5E:B5:3C:75:50:D3:CB:F3:15

            X509v3 Subject Alternative Name: 
                email:admin@erwinmueller.nttdata.com
    Signature Algorithm: sha256WithRSAEncryption
         1e:ee:9a:02:32:14:9e:4f:16:93:ac:51:ec:3a:23:e1:ef:98:
         69:0f:e1:2e:b8:30:71:7c:e9:47:ef:5b:82:4c:c7:20:2d:7e:
         f6:22:f8:9b:c3:26:a7:5f:f4:71:4c:de:d8:31:63:2a:de:71:
         db:b4:20:0d:3c:09:b8:6c:5c:27:11:65:ae:72:93:0b:02:bb:
         b0:3d:57:d9:59:03:31:51:94:43:81:31:95:45:41:2a:54:12:
         a7:cb:5e:7b:df:5f:7c:5b:40:d9:27:22:f7:5d:55:5e:59:e2:
         1e:4d:99:d3:14:ed:37:65:1f:bf:20:c2:33:34:5f:5e:fa:3b:
         1c:29:33:6a:c0:46:17:92:90:13:07:be:b9:f4:bc:b1:80:9d:
         53:2e:af:7a:03:3e:5b:24:1e:b3:3a:fe:4f:c8:74:03:f7:1f:
         4a:08:3b:cd:e3:b9:3e:42:63:4b:8f:55:23:ac:7c:25:0a:62:
         8a:20:80:e2:de:0d:0e:ea:9e:00:86:d1:b5:b6:10:73:fe:87:
         a7:99:c8:29:86:bc:12:dc:84:1a:79:3b:56:e5:93:ff:64:67:
         c6:5f:d7:ee:b3:08:69:fa:6e:99:43:01:30:2b:17:85:68:bf:
         c0:82:26:f1:c1:f7:db:fb:91:60:f0:c2:cd:c3:68:80:b0:f7:
         fe:14:69:39
-----BEGIN CERTIFICATE-----
MIIEWDCCA0CgAwIBAgIJANxlzVPuRw9sMA0GCSqGSIb3DQEBCwUAMIGhMQswCQYD
VQQGEwJERTEQMA4GA1UECAwHQkFWQVJJQTEWMBQGA1UECgwNTlRUIERBVEEgR01C
SDEWMBQGA1UECwwNRVJXSU4gTVVFTExFUjEhMB8GA1UEAwwYZXJ3aW5tdWVsbGVy
Lm50dGRhdGEuY29tMS0wKwYJKoZIhvcNAQkBFh5hZG1pbkBlcndpbm11ZWxsZXIu
bnR0ZGF0YS5jb20wHhcNMTYwNjIyMDkxNDIyWhcNMTcwNjIyMDkxNDIyWjCBijEL
MAkGA1UEBhMCREUxEDAOBgNVBAgMB0JBVkFSSUExDzANBgNVBAcMBk1VTklDSDEW
MBQGA1UECgwNTlRUIERBVEEgR01CSDEWMBQGA1UECwwNRVJXSU4gTVVFTExFUjEo
MCYGA1UEAwwfbWFpbDAubXVlbGxlcnB1YmxpYy5udHRkYXRhLmNvbTCCASIwDQYJ
KoZIhvcNAQEBBQADggEPADCCAQoCggEBALQg31FK6cmCijmKwEPOyJMVC9P129a5
fzLnQupFdqq8sWLeqCIq2SnsvcJaL52dCgEgG+1C3is3MYV7fP1rXSl2Mx5+clOO
jllRpyAZLaANMambMFujWTsPrLIdU9KSXfHUeLlXXVYvsUppeu6VNiq+3h2PM/8L
Btd2pRsBNeHLs0ts/J5PizyJ3SZWoFIdc/ZU1TXYDYjgCXiJvwRv9ryrCClWkBHH
L4UcFSCiuAXR5uQ0vo0h7x/kF7BRIyMXjUZUVW+hfrvYUvDMTDry7zWpBj1ION3z
oM14jdT/PttBlY/nFIMnaVPXNnU2CWbXbkCPiHPlyU1kPdccfzX4DyMCAwEAAaOB
pzCBpDAsBglghkgBhvhCAQ0EHxYdT3BlblNTTCBHZW5lcmF0ZWQgQ2VydGlmaWNh
dGUwCQYDVR0TBAIwADAdBgNVHQ4EFgQUkEEWXX3p0F/hQXwtv+qHnbLugNcwHwYD
VR0jBBgwFoAU0l7F4yJzcsQGG6hetTx1UNPL8xUwKQYDVR0RBCIwIIEeYWRtaW5A
ZXJ3aW5tdWVsbGVyLm50dGRhdGEuY29tMA0GCSqGSIb3DQEBCwUAA4IBAQAe7poC
MhSeTxaTrFHsOiPh75hpD+EuuDBxfOlH71uCTMcgLX72IvibwyanX/RxTN7YMWMq
3nHbtCANPAm4bFwnEWWucpMLAruwPVfZWQMxUZRDgTGVRUEqVBKny1573198W0DZ
JyL3XVVeWeIeTZnTFO03ZR+/IMIzNF9e+jscKTNqwEYXkpATB7659LyxgJ1TLq96
Az5bJB6zOv5PyHQD9x9KCDvN47k+QmNLj1UjrHwlCmKKIIDi3g0O6p4AhtG1thBz
/oenmcgphrwS3IQaeTtW5ZP/ZGfGX9fuswhp+m6ZQwEwKxeFaL/Agibxwffb+5Fg
8MLNw2iAsPf+FGk5
-----END CERTIFICATE-----
